(lp0
(lp1
F0.0
aF0.0
aF0.0
aF0.0
aa(lp2
F0.0
aF0.0
aF0.0
aF0.0
aa(lp3
F0.0
aF0.0
aF0.0
aF0.0
aa(lp4
F0.0
aF0.0
aF0.0
aF0.0
aa(lp5
F0.0
aF0.0
aF0.0
aF0.0
aa(lp6
F0.0
aF0.0
aF0.0
aF0.0
aa(lp7
F0.0
aF0.0
aF0.0
aF0.0
aa(lp8
F0.0
aF0.0
aF0.0
aF0.0
aa(lp9
F0.0
aF0.0
aF0.0
aF0.0
aa(lp10
F0.0
aF0.0
aF0.0
aF0.0
aa(lp11
F0.0
aF0.0
aF0.0
aF0.0
aa(lp12
F0.0
aF0.0
aF0.0
aF0.0
aa(lp13
F0.0
aF0.0
aF0.0
aF0.0
aa(lp14
F0.0
aF0.0
aF0.0
aF0.0
aa(lp15
F0.0
aF0.0
aF0.0
aF0.0
aa(lp16
F9.286076791610919
aF8.790191057026572
aF8.80191430014716
aF8.791672612129922
aa(lp17
F8.815652740694098
aF9.26942371640554
aF9.041831469753184
aF8.780567339381516
aa(lp18
F8.807606433762665
aF8.945233306541198
aF9.281795983234204
aF9.105126458497493
aa(lp19
F8.891589804229444
aF9.040654024821475
aF9.414848948129249
aF8.730978844463866
aa(lp20
F8.809583164664284
aF8.884823074951036
aF8.31035737286015
aF8.61521860891514
aa(lp21
F8.158333085366323
aF8.764679846861627
aF9.038209251473852
aF8.317143679986184
aa(lp22
F8.33381949226369
aF8.275768695323283
aF8.068822603610158
aF8.055379916182781
aa(lp23
F7.796007618779255
aF7.420658493662653
aF8.375620642784597
aF7.791131601723554
aa(lp24
F6.801713713186009
aF4.667961166715977
aF8.041627924997906
aF7.4450531241345175
aa(lp25
F7.233119339355083
aF7.854231095848021
aF7.219744709272601
aF7.330897061929242
aa(lp26
F5.82218341353619
aF6.373086993422762
aF7.4466397937180435
aF6.869216088788956
aa(lp27
F6.586334856368819
aF6.817615436014965
aF7.284780726480866
aF6.64070892412097
aa(lp28
F0.0
aF0.0
aF0.0
aF0.0
aa(lp29
F0.0
aF0.0
aF0.0
aF0.0
aa(lp30
F8.84285470078941
aF9.55285159162357
aF8.781684190980474
aF8.898294523213796
aa(lp31
F9.184567652763056
aF8.987094371370947
aF9.424871784201367
aF8.894489899676168
aa(lp32
F9.186325773037389
aF9.033561419960249
aF8.70009534158724
aF8.471168754282397
aa(lp33
F9.398008680420379
aF8.7472060845054
aF8.894327957809894
aF6.551195060155488
aa(lp34
F7.903315151568536
aF4.9936834556728815
aF8.999974427601735
aF8.466736520489412
aa(lp35
F8.335512252006577
aF6.097648794883264
aF7.94518625211031
aF7.990644390774369
aa(lp36
F8.228437704171593
aF7.420176597649905
aF7.5278458148664615
aF7.122716789621508
aa(lp37
F8.12924866664384
aF6.28933127708534
aF7.4832369388996565
aF6.71192320718134
aa(lp38
F5.421073280415614
aF7.839945405035336
aF3.426698244203439
aF4.802993548042505
aa(lp39
F6.923172746175078
aF6.556657348388475
aF7.774035742803161
aF6.029225454652326
aa(lp40
F5.767504535229138
aF4.15498650747738
aF7.137981869059116
aF4.841528227434561
aa(lp41
F7.019232658261998
aF5.317857530798596
aF5.185766676241945
aF4.660086078589616
aa(lp42
F0.0
aF0.0
aF0.0
aF0.0
aa(lp43
F0.0
aF0.0
aF0.0
aF0.0
aa(lp44
F8.990646492123963
aF8.83961044523887
aF8.810514221225777
aF8.740061564597827
aa(lp45
F8.668209214257274
aF7.5660525757122095
aF9.531311261432057
aF8.73392448275947
aa(lp46
F8.80919951626986
aF7.502472698592674
aF8.274404932965673
aF8.312303127773648
aa(lp47
F9.12489584728881
aF3.7680886841334646
aF5.423663619798348
aF1.4876381684900792
aa(lp48
F2.121000599081359
aF-0.24300894316315125
aF9.01839466032318
aF-0.4160185953939915
aa(lp49
F4.680021732512296
aF0.8922565374481422
aF8.502843406213373
aF6.275939166623309
aa(lp50
F8.160435206711476
aF1.9642032055173615
aF1.2673813232369229
aF2.502472599377719
aa(lp51
F8.467662847007393
aF4.862756505027983
aF4.315971578297461
aF3.5284579170995682
aa(lp52
F3.145241956827168
aF-0.08545973582221011
aF8.286281685924905
aF3.2995092607598586
aa(lp53
F3.4031927885752356
aF-0.2763492901007737
aF6.040955996076989
aF3.870171522913051
aa(lp54
F6.455732149159152
aF-0.012945398316117789
aF-0.01019114166399059
aF2.8535267618800053
aa(lp55
F5.820529579997272
aF0.29688948952008865
aF0.39694670019462786
aF-0.00805803391434633
aa(lp56
F0.0
aF0.0
aF0.0
aF0.0
aa(lp57
F0.0
aF0.0
aF0.0
aF0.0
aa(lp58
F8.836555137938166
aF9.594858853551608
aF9.08698605794327
aF8.15650749417868
aa(lp59
F9.201249776354853
aF8.258722641633096
aF8.331466171984093
aF7.550909242217032
aa(lp60
F2.672090858829101
aF4.229382676217613
aF8.721617870902111
aF-0.75
aa(lp61
F8.284075414403107
aF-1.1409935759954237
aF-0.76171875
aF-0.75
aa(lp62
F-1.4670295326673544
aF-2.25
aF-0.7947126611543354
aF4.709226530869861
aa(lp63
F7.610544377339633
aF-1.0
aF0.19338486347954764
aF-1.375
aa(lp64
F3.3152399109533333
aF-1.9375
aF0.9572410346243507
aF-1.0
aa(lp65
F7.623238970593356
aF-0.75
aF-1.25
aF-0.75
aa(lp66
F5.939922972688431
aF-1.1875
aF-0.796875
aF-0.6840210657724128
aa(lp67
F2.609681451432959
aF-0.375
aF-0.84375
aF-0.37635024713367393
aa(lp68
F3.578565002819524
aF-0.07095366423488805
aF-0.01754725201773813
aF-0.017968876613547263
aa(lp69
F-0.00886402509982909
aF-0.01058264874488023
aF1.4788743066585537
aF-0.008847407959735284
aa(lp70
F0.0
aF0.0
aF0.0
aF0.0
aa(lp71
F0.0
aF0.0
aF0.0
aF0.0
aa(lp72
F9.46795031676372
aF9.453151445225025
aF9.50781861680775
aF7.547012690107911
aa(lp73
F2.8930634403057613
aF8.018727039640343
aF6.836606135310893
aF6.2797666960886716
aa(lp74
F-0.6687396362339382
aF7.060244753870101
aF-1.0
aF0.013680072504523633
aa(lp75
F5.303775633459097
aF-1.0
aF-0.5894253223086707
aF-1.0
aa(lp76
F-1.6314270516159013
aF-1.5
aF-2.25
aF-1.9375549852848053
aa(lp77
F1.3795965264739083
aF-1.5
aF-1.25
aF-1.0
aa(lp78
F-1.625
aF-1.5
aF-1.0
aF-1.0
aa(lp79
F-0.8872572882982559
aF-1.0
aF-1.25
aF-0.5
aa(lp80
F-1.2776115505196075
aF-1.375
aF-1.75
aF-1.0
aa(lp81
F-0.937500002237899
aF-0.2500000002852857
aF-0.75
aF-1.0000000000131022
aa(lp82
F-0.06386688450327097
aF-0.008311615921185067
aF-0.06430151923715649
aF-0.03518582920290792
aa(lp83
F-0.007248563329176198
aF-0.008500330853890566
aF-0.02033704575856624
aF-0.007976933483885944
aa(lp84
F0.0
aF0.0
aF0.0
aF0.0
aa(lp85
F0.0
aF0.0
aF0.0
aF0.0
aa(lp86
F9.441388360230114
aF9.85882591566428
aF9.189790136665899
aF8.220735763901594
aa(lp87
F8.13643081643374
aF8.541211412176107
aF9.496458614646148
aF7.926858726000093
aa(lp88
F1.4622997998003648
aF0.10619694277928038
aF8.632746408495489
aF-0.2135668211052899
aa(lp89
F-1.0
aF-1.0
aF5.5893112524427915
aF-1.5
aa(lp90
F-1.5
aF-3.0
aF-1.25
aF-1.5
aa(lp91
F-1.0
aF-1.0
aF-2.0
aF0.0
aa(lp92
F-1.0
aF0.0
aF0.0
aF0.0
aa(lp93
F-1.0
aF-1.0
aF-1.0
aF-0.75
aa(lp94
F-1.5
aF-1.25
aF-1.0
aF-0.25
aa(lp95
F-0.125
aF-0.25000000007821893
aF-0.75
aF-0.004426271154144324
aa(lp96
F-0.06250000405283475
aF-0.25
aF-0.0625
aF-0.008583381703791937
aa(lp97
F-0.006707134217041407
aF-0.00731219530512218
aF-0.01878162407770112
aF-0.008416914608592719
aa(lp98
F0.0
aF0.0
aF0.0
aF0.0
aa(lp99
F0.0
aF0.0
aF0.0
aF0.0
aa(lp100
F9.50919760880096
aF9.929197774966209
aF8.055171930353254
aF8.980874142285469
aa(lp101
F5.722768866529103
aF9.858826250031234
aF8.946288714626744
aF7.986222121129357
aa(lp102
F-0.5
aF-0.5
aF3.3753436579407516
aF-1.0
aa(lp103
F0.5459821356432393
aF-1.0
aF-1.0
aF-1.5
aa(lp104
F-2.25
aF-2.5
aF-1.0
aF-1.0
aa(lp105
F-1.5
aF-1.0
aF-1.5
aF-2.0
aa(lp106
F-1.0
aF-0.5
aF0.0
aF0.0
aa(lp107
F-1.0
aF-0.75
aF-1.0
aF-0.5
aa(lp108
F-0.5
aF-0.5
aF-1.25
aF-0.00048041692337750966
aa(lp109
F-0.125
aF-0.37548041692337747
aF-0.75
aF-0.0068067724037209135
aa(lp110
F-0.008218449005544986
aF-0.007339049325919263
aF-0.007384337785334343
aF-0.006885493224822041
aa(lp111
F-0.006305587522372695
aF-0.018349493930834827
aF-0.008527875685753507
aF-0.03125000031141215
aa(lp112
F0.0
aF0.0
aF0.0
aF0.0
aa(lp113
F0.0
aF0.0
aF0.0
aF0.0
aa(lp114
F9.629739536691421
aF9.867747978615256
aF8.968719673539551
aF7.9528745012551605
aa(lp115
F8.734171986443235
aF9.88979127303838
aF8.526726799313904
aF7.216040062372134
aa(lp116
F-0.5
aF-0.5
aF8.974672993948918
aF0.0
aa(lp117
F-1.5
aF-1.0
aF-0.5
aF-1.5
aa(lp118
F-3.0
aF-1.25
aF-1.5
aF-1.75
aa(lp119
F-1.0
aF-1.125
aF-1.0
aF-0.75
aa(lp120
F-1.0
aF-0.9002685546875
aF-1.25
aF-0.5
aa(lp121
F-1.0
aF-0.125
aF0.0
aF-0.5
aa(lp122
F-0.5
aF-0.1171875
aF-0.5
aF-0.0002533985571600075
aa(lp123
F-0.375
aF-0.250457763671875
aF-0.875
aF-0.0033132543973661984
aa(lp124
F-0.0180482080082158
aF-0.003590813569404809
aF-0.03126078131511861
aF-0.031250112058125584
aa(lp125
F-0.06469346880620389
aF-0.00515710286258172
aF-0.024235478652952697
aF-0.012557625645994766
aa(lp126
F0.0
aF0.0
aF0.0
aF0.0
aa(lp127
F0.0
aF0.0
aF0.0
aF0.0
aa(lp128
F9.795218236182638
aF9.814337302323398
aF9.74242292519948
aF7.780110938986482
aa(lp129
F9.382711338458048
aF8.964457043375958
aF9.89426120767202
aF6.207352819165124
aa(lp130
F7.055254665435288
aF3.767326795642431
aF0.0
aF0.0
aa(lp131
F-1.0
aF4.519303722859366
aF0.0
aF0.0
aa(lp132
F-1.25
aF0.0
aF0.0
aF-0.5
aa(lp133
F-1.0
aF-1.0
aF-1.625
aF-0.921875
aa(lp134
F-0.5
aF-0.8203125
aF-0.75
aF-0.280023204115417
aa(lp135
F-0.75
aF-0.13115932923886459
aF-0.875
aF-0.581298828125
aa(lp136
F-0.96875
aF-0.2646484375
aF-0.34375
aF-0.149810791015625
aa(lp137
F-0.25
aF-0.05859643222267966
aF-0.071685791015625
aF-0.0021731873954150237
aa(lp138
F-0.00493819952541495
aF-0.01053288648077837
aF-0.007621369844495272
aF-0.003423447084491808
aa(lp139
F-0.012170851125019207
aF-0.018293594962034
aF-0.006206984227648138
aF-0.00521714157479688
aa(lp140
F0.0
aF0.0
aF0.0
aF0.0
aa(lp141
F0.0
aF0.0
aF0.0
aF0.0
aa(lp142
F9.467236728349938
aF9.862611797246032
aF9.03110217188237
aF9.18186673419501
aa(lp143
F9.479967377451027
aF7.849502332252989
aF7.4031248449245615
aF5.8651901622623575
aa(lp144
F5.161060563070732
aF6.06093407219782
aF5.619869276829251
aF5.842227011863219
aa(lp145
F-0.5
aF-0.5
aF8.909743005451809
aF0.0
aa(lp146
F-0.75
aF0.0
aF0.0
aF0.0
aa(lp147
F-0.5
aF-0.5
aF-0.875
aF-0.028920394878875814
aa(lp148
F-0.75
aF-0.5764620715405773
aF-0.40625
aF-0.5016251392662525
aa(lp149
F-0.288818359375
aF-0.004377214512775986
aF-0.12697196173807151
aF-0.024361864479540852
aa(lp150
F-0.4375
aF-0.25156931508517144
aF-0.1355279048926225
aF-0.008321105187207113
aa(lp151
F-0.05859375
aF-0.014984658048902179
aF-0.011268784427101445
aF-0.0033486067042014607
aa(lp152
F-0.003129765545727241
aF-0.004497545274236953
aF-0.003516627990712689
aF-0.003276630621323638
aa(lp153
F-0.0031100787925360225
aF-0.0031507199270937826
aF-0.0031232370287312076
aF-0.0031752367715352954
aa(lp154
F0.0
aF0.0
aF0.0
aF0.0
aa(lp155
F0.0
aF0.0
aF0.0
aF0.0
aa(lp156
F9.781964298434593
aF9.822328779848693
aF9.771189506949668
aF9.520715446007458
aa(lp157
F9.11914825533215
aF9.156029022386754
aF9.90306344070155
aF5.985587752907121
aa(lp158
F7.309369601835741
aF0.5534226484596729
aF4.841182640697242
aF0.0
aa(lp159
F3.8609596101034693
aF0.0
aF0.0
aF0.0
aa(lp160
F-0.125
aF-0.015625
aF0.0
aF0.0
aa(lp161
F-0.1075439453125
aF-0.03515625
aF0.0
aF0.0
aa(lp162
F-0.008144042399105773
aF-0.006345672337521044
aF-0.0078125
aF-0.01840134008363705
aa(lp163
F-0.01777224692517921
aF-0.004525781841245336
aF-0.009323778335052463
aF-0.0034448900838544867
aa(lp164
F-0.0035877526510339486
aF-0.003274753760487722
aF-0.004260250125695458
aF-0.008040587992766877
aa(lp165
F-0.003965597185532281
aF-0.003133214470918228
aF-0.0035608744338665923
aF-0.004245996276250949
aa(lp166
F-0.0031040734914106177
aF-0.003162377490902401
aF-0.0032830061334601854
aF-0.0030795943249504578
aa(lp167
F-0.0030718929740320574
aF-0.0031444209505329026
aF-0.0030600653993496595
aF-0.003077080642948144
aa(lp168
F0.0
aF0.0
aF0.0
aF0.0
aa(lp169
F0.0
aF0.0
aF0.0
aF0.0
aa(lp170
F0.0
aF0.0
aF0.0
aF0.0
aa(lp171
F-0.0625
aF4.975241719817657
aF9.578380311294934
aF3.3297471245616603
aa(lp172
F6.984517078270655
aF0.0
aF0.0
aF0.0
aa(lp173
F0.27271270751953125
aF0.0
aF0.0
aF0.0
aa(lp174
F-0.0625
aF-0.016172806865337726
aF-0.03125
aF-0.035186767578125
aa(lp175
F-0.03515625
aF-0.005921544603733111
aF-0.017578125
aF-0.001973305434563581
aa(lp176
F-0.0035955057101489485
aF-0.003543927807326058
aF-0.009820501308614024
aF-0.0035989201531792516
aa(lp177
F-0.004260187977295786
aF-0.0038787878559801486
aF-0.0038759693570412377
aF-0.0033174825689380673
aa(lp178
F-0.0037845522563704137
aF-0.003519113811419397
aF-0.00353807852790092
aF-0.003128576949902265
aa(lp179
F-0.003604932877717731
aF-0.003458873379947673
aF-0.003468895091418722
aF-0.0030125959523936694
aa(lp180
F-0.0030686604982721553
aF-0.003081061257983942
aF-0.0034588736025469528
aF-0.003029545435852251
aa(lp181
F-0.0030461542870904917
aF-0.003041593284865387
aF-0.003114309912639598
aF-0.003034008026980644
aa(lp182
F0.0
aF0.0
aF0.0
aF0.0
aa(lp183
F0.0
aF0.0
aF0.0
aF0.0
aa(lp184
F0.0
aF0.0
aF0.0
aF0.0
aa(lp185
F0.0
aF0.0
aF0.0
aF0.0
aa(lp186
F0.0
aF0.0
aF0.0
aF0.0
aa(lp187
F0.0
aF0.0
aF0.0
aF0.0
aa(lp188
F0.0
aF0.0
aF0.0
aF0.0
aa(lp189
F0.0
aF0.0
aF0.0
aF0.0
aa(lp190
F0.0
aF0.0
aF0.0
aF0.0
aa(lp191
F0.0
aF0.0
aF0.0
aF0.0
aa(lp192
F0.0
aF0.0
aF0.0
aF0.0
aa(lp193
F0.0
aF0.0
aF0.0
aF0.0
aa(lp194
F0.0
aF0.0
aF0.0
aF0.0
aa(lp195
F0.0
aF0.0
aF0.0
aF0.0
aa(lp196
F0.0
aF0.0
aF0.0
aF0.0
aa.